(lp0
VMMM
p1
aVABT
p2
aVABBV
p3
aVABMD
p4
aVACN
p5
aVATVI
p6
aVADBE
p7
aVAMD
p8
aVAAP
p9
aVAES
p10
aVAET
p11
aVAMG
p12
aVAFL
p13
aVA
p14
aVAPD
p15
aVAKAM
p16
aVALK
p17
aVALB
p18
aVARE
p19
aVALXN
p20
aVALGN
p21
aVALLE
p22
aVAGN
p23
aVADS
p24
aVLNT
p25
aVALL
p26
aVGOOGL
p27
aVGOOG
p28
aVMO
p29
aVAMZN
p30
aVAEE
p31
aVAAL
p32
aVAEP
p33
aVAXP
p34
aVAIG
p35
aVAMT
p36
aVAWK
p37
aVAMP
p38
aVABC
p39
aVAME
p40
aVAMGN
p41
aVAPH
p42
aVAPC
p43
aVADI
p44
aVANDV
p45
aVANSS
p46
aVANTM
p47
aVAON
p48
aVAOS
p49
aVAPA
p50
aVAIV
p51
aVAAPL
p52
aVAMAT
p53
aVAPTV
p54
aVADM
p55
aVARNC
p56
aVANET
p57
aVAJG
p58
aVAIZ
p59
aVT
p60
aVADSK
p61
aVADP
p62
aVAZO
p63
aVAVB
p64
aVAVY
p65
aVBHGE
p66
aVBLL
p67
aVBAC
p68
aVBK
p69
aVBAX
p70
aVBBT
p71
aVBDX
p72
aVBRK.B
p73
aVBBY
p74
aVBIIB
p75
aVBLK
p76
aVHRB
p77
aVBA
p78
aVBKNG
p79
aVBWA
p80
aVBXP
p81
aVBSX
p82
aVBHF
p83
aVBMY
p84
aVAVGO
p85
aVBR
p86
aVBF.B
p87
aVCHRW
p88
aVCA
p89
aVCOG
p90
aVCDNS
p91
aVCPB
p92
aVCOF
p93
aVCAH
p94
aVKMX
p95
aVCCL
p96
aVCAT
p97
aVCBOE
p98
aVCBRE
p99
aVCBS
p100
aVCELG
p101
aVCNC
p102
aVCNP
p103
aVCTL
p104
aVCERN
p105
aVCF
p106
aVSCHW
p107
aVCHTR
p108
aVCVX
p109
aVCMG
p110
aVCB
p111
aVCHD
p112
aVCI
p113
aVXEC
p114
aVCINF
p115
aVCTAS
p116
aVCSCO
p117
aVC
p118
aVCFG
p119
aVCTXS
p120
aVCLX
p121
aVCME
p122
aVCMS
p123
aVKO
p124
aVCTSH
p125
aVCL
p126
aVCMCSA
p127
aVCMA
p128
aVCAG
p129
aVCXO
p130
aVCOP
p131
aVED
p132
aVSTZ
p133
aVCOO
p134
aVCPRT
p135
aVGLW
p136
aVCOST
p137
aVCOTY
p138
aVCCI
p139
aVCSX
p140
aVCMI
p141
aVCVS
p142
aVDHI
p143
aVDHR
p144
aVDRI
p145
aVDVA
p146
aVDE
p147
aVDAL
p148
aVXRAY
p149
aVDVN
p150
aVDLR
p151
aVDFS
p152
aVDISCA
p153
aVDISCK
p154
aVDISH
p155
aVDG
p156
aVDLTR
p157
aVD
p158
aVDOV
p159
aVDWDP
p160
aVDTE
p161
aVDRE
p162
aVDUK
p163
aVDXC
p164
aVETFC
p165
aVEMN
p166
aVETN
p167
aVEBAY
p168
aVECL
p169
aVEIX
p170
aVEW
p171
aVEA
p172
aVEMR
p173
aVETR
p174
aVEVHC
p175
aVEOG
p176
aVEQT
p177
aVEFX
p178
aVEQIX
p179
aVEQR
p180
aVESS
p181
aVEL
p182
aVEVRG
p183
aVES
p184
aVRE
p185
aVEXC
p186
aVEXPE
p187
aVEXPD
p188
aVESRX
p189
aVEXR
p190
aVXOM
p191
aVFFIV
p192
aVFB
p193
aVFAST
p194
aVFRT
p195
aVFDX
p196
aVFIS
p197
aVFITB
p198
aVFE
p199
aVFISV
p200
aVFLT
p201
aVFLIR
p202
aVFLS
p203
aVFLR
p204
aVFMC
p205
aVFL
p206
aVF
p207
aVFTV
p208
aVFBHS
p209
aVBEN
p210
aVFCX
p211
aVGPS
p212
aVGRMN
p213
aVIT
p214
aVGD
p215
aVGE
p216
aVGIS
p217
aVGM
p218
aVGPC
p219
aVGILD
p220
aVGPN
p221
aVGS
p222
aVGT
p223
aVGWW
p224
aVHAL
p225
aVHBI
p226
aVHOG
p227
aVHRS
p228
aVHIG
p229
aVHAS
p230
aVHCA
p231
aVHCP
p232
aVHP
p233
aVHSIC
p234
aVHSY
p235
aVHES
p236
aVHPE
p237
aVHLT
p238
aVHFC
p239
aVHOLX
p240
aVHD
p241
aVHON
p242
aVHRL
p243
aVHST
p244
aVHPQ
p245
aVHUM
p246
aVHBAN
p247
aVHII
p248
aVIDXX
p249
aVINFO
p250
aVITW
p251
aVILMN
p252
aVIR
p253
aVINTC
p254
aVICE
p255
aVIBM
p256
aVINCY
p257
aVIP
p258
aVIPG
p259
aVIFF
p260
aVINTU
p261
aVISRG
p262
aVIVZ
p263
aVIPGP
p264
aVIQV
p265
aVIRM
p266
aVJEC
p267
aVJBHT
p268
aVJEF
p269
aVSJM
p270
aVJNJ
p271
aVJCI
p272
aVJPM
p273
aVJNPR
p274
aVKSU
p275
aVK
p276
aVKEY
p277
aVKMB
p278
aVKIM
p279
aVKMI
p280
aVKLAC
p281
aVKSS
p282
aVKHC
p283
aVKR
p284
aVLB
p285
aVLLL
p286
aVLH
p287
aVLRCX
p288
aVLEG
p289
aVLEN
p290
aVLLY
p291
aVLNC
p292
aVLKQ
p293
aVLMT
p294
aVL
p295
aVLOW
p296
aVLYB
p297
aVMTB
p298
aVMAC
p299
aVM
p300
aVMRO
p301
aVMPC
p302
aVMAR
p303
aVMMC
p304
aVMLM
p305
aVMAS
p306
aVMA
p307
aVMAT
p308
aVMKC
p309
aVMCD
p310
aVMCK
p311
aVMDT
p312
aVMRK
p313
aVMET
p314
aVMTD
p315
aVMGM
p316
aVKORS
p317
aVMCHP
p318
aVMU
p319
aVMSFT
p320
aVMAA
p321
aVMHK
p322
aVTAP
p323
aVMDLZ
p324
aVMNST
p325
aVMCO
p326
aVMS
p327
aVMOS
p328
aVMSI
p329
aVMSCI
p330
aVMYL
p331
aVNDAQ
p332
aVNOV
p333
aVNKTR
p334
aVNTAP
p335
aVNFLX
p336
aVNWL
p337
aVNFX
p338
aVNEM
p339
aVNWSA
p340
aVNWS
p341
aVNEE
p342
aVNLSN
p343
aVNKE
p344
aVNI
p345
aVNBL
p346
aVJWN
p347
aVNSC
p348
aVNTRS
p349
aVNOC
p350
aVNCLH
p351
aVNRG
p352
aVNUE
p353
aVNVDA
p354
aVORLY
p355
aVOXY
p356
aVOMC
p357
aVOKE
p358
aVORCL
p359
aVPCAR
p360
aVPKG
p361
aVPH
p362
aVPAYX
p363
aVPYPL
p364
aVPNR
p365
aVPBCT
p366
aVPEP
p367
aVPKI
p368
aVPRGO
p369
aVPFE
p370
aVPCG
p371
aVPM
p372
aVPSX
p373
aVPNW
p374
aVPXD
p375
aVPNC
p376
aVRL
p377
aVPPG
p378
aVPPL
p379
aVPX
p380
aVPFG
p381
aVPG
p382
aVPGR
p383
aVPLD
p384
aVPRU
p385
aVPEG
p386
aVPSA
p387
aVPHM
p388
aVPVH
p389
aVQRVO
p390
aVPWR
p391
aVQCOM
p392
aVDGX
p393
aVRJF
p394
aVRTN
p395
aVO
p396
aVRHT
p397
aVREG
p398
aVREGN
p399
aVRF
p400
aVRSG
p401
aVRMD
p402
aVRHI
p403
aVROK
p404
aVCOL
p405
aVROP
p406
aVROST
p407
aVRCL
p408
aVCRM
p409
aVSBAC
p410
aVSCG
p411
aVSLB
p412
aVSTX
p413
aVSEE
p414
aVSRE
p415
aVSHW
p416
aVSPG
p417
aVSWKS
p418
aVSLG
p419
aVSNA
p420
aVSO
p421
aVLUV
p422
aVSPGI
p423
aVSWK
p424
aVSBUX
p425
aVSTT
p426
aVSRCL
p427
aVSYK
p428
aVSTI
p429
aVSIVB
p430
aVSYMC
p431
aVSYF
p432
aVSNPS
p433
aVSYY
p434
aVTROW
p435
aVTTWO
p436
aVTPR
p437
aVTGT
p438
aVTEL
p439
aVFTI
p440
aVTXN
p441
aVTXT
p442
aVTMO
p443
aVTIF
p444
aVTWTR
p445
aVTJX
p446
aVTMK
p447
aVTSS
p448
aVTSCO
p449
aVTDG
p450
aVTRV
p451
aVTRIP
p452
aVFOXA
p453
aVFOX
p454
aVTSN
p455
aVUDR
p456
aVULTA
p457
aVUSB
p458
aVUAA
p459
aVUA
p460
aVUNP
p461
aVUAL
p462
aVUNH
p463
aVUPS
p464
aVURI
p465
aVUTX
p466
aVUHS
p467
aVUNM
p468
aVVFC
p469
aVVLO
p470
aVVAR
p471
aVVTR
p472
aVVRSN
p473
aVVRSK
p474
aVVZ
p475
aVVRTX
p476
aVVIAB
p477
aVV
p478
aVVNO
p479
aVVMC
p480
aVWMT
p481
aVWBA
p482
aVDIS
p483
aVWM
p484
aVWAT
p485
aVWEC
p486
aVWFC
p487
aVWELL
p488
aVWDC
p489
aVWU
p490
aVWRK
p491
aVWY
p492
aVWHR
p493
aVWMB
p494
aVWLTW
p495
aVWYNN
p496
aVXEL
p497
aVXRX
p498
aVXLNX
p499
aVXL
p500
aVXYL
p501
aVYUM
p502
aVZBH
p503
aVZION
p504
aVZTS
p505
a.